; ModuleID = '1/2152.c'
source_filename = "1/2152.c"
target datalayout = "e-m:e-p270:32:32-p271:32:32-p272:64:64-i64:64-f80:128-n8:16:32:64-S128"
target triple = "x86_64-pc-linux-gnu"

@count = common dso_local global i32 0, align 4
@.str = private unnamed_addr constant [3 x i8] c"%d\00", align 1
@.str.1 = private unnamed_addr constant [4 x i8] c"%d\0A\00", align 1

; Function Attrs: noinline nounwind uwtable
define dso_local void @fun(i32 %0, i32 %1) #0 {
  %3 = alloca i32, align 4
  %4 = alloca i32, align 4
  %5 = alloca i32, align 4
  store i32 %0, i32* %3, align 4
  store i32 %1, i32* %4, align 4
  %6 = load i32, i32* %3, align 4
  %7 = sitofp i32 %6 to double
  %8 = load i32, i32* %4, align 4
  %9 = sitofp i32 %8 to double
  %10 = call double @sqrt(double %9) #3
  %11 = fcmp ole double %7, %10
  br i1 %11, label %12, label %40

12:                                               ; preds = %2
  %13 = load i32, i32* %3, align 4
  store i32 %13, i32* %5, align 4
  br label %14

14:                                               ; preds = %36, %12
  %15 = load i32, i32* %5, align 4
  %16 = sitofp i32 %15 to double
  %17 = load i32, i32* %4, align 4
  %18 = sitofp i32 %17 to double
  %19 = call double @sqrt(double %18) #3
  %20 = fcmp ole double %16, %19
  br i1 %20, label %21, label %39

21:                                               ; preds = %14
  %22 = load i32, i32* %4, align 4
  %23 = load i32, i32* %5, align 4
  %24 = srem i32 %22, %23
  %25 = icmp eq i32 %24, 0
  br i1 %25, label %26, label %33

26:                                               ; preds = %21
  %27 = load i32, i32* @count, align 4
  %28 = add nsw i32 %27, 1
  store i32 %28, i32* @count, align 4
  %29 = load i32, i32* %5, align 4
  %30 = load i32, i32* %4, align 4
  %31 = load i32, i32* %5, align 4
  %32 = sdiv i32 %30, %31
  call void @fun(i32 %29, i32 %32)
  br label %35

33:                                               ; preds = %21
  %34 = load i32, i32* @count, align 4
  store i32 %34, i32* @count, align 4
  br label %35

35:                                               ; preds = %33, %26
  br label %36

36:                                               ; preds = %35
  %37 = load i32, i32* %5, align 4
  %38 = add nsw i32 %37, 1
  store i32 %38, i32* %5, align 4
  br label %14

39:                                               ; preds = %14
  br label %42

40:                                               ; preds = %2
  %41 = load i32, i32* @count, align 4
  store i32 %41, i32* @count, align 4
  br label %42

42:                                               ; preds = %40, %39
  ret void
}

; Function Attrs: nounwind
declare dso_local double @sqrt(double) #1

; Function Attrs: noinline nounwind uwtable
define dso_local i32 @main() #0 {
  %1 = alloca i32, align 4
  %2 = alloca i32, align 4
  %3 = alloca i32, align 4
  %4 = alloca i32, align 4
  %5 = alloca i32, align 4
  store i32 0, i32* %1, align 4
  %6 = call i32 (i8*, ...) @__isoc99_scanf(i8* getelementptr inbounds ([3 x i8], [3 x i8]* @.str, i64 0, i64 0), i32* %2)
  store i32 0, i32* %3, align 4
  br label %7

7:                                                ; preds = %40, %0
  %8 = load i32, i32* %3, align 4
  %9 = load i32, i32* %2, align 4
  %10 = icmp slt i32 %8, %9
  br i1 %10, label %11, label %43

11:                                               ; preds = %7
  store i32 0, i32* @count, align 4
  %12 = call i32 (i8*, ...) @__isoc99_scanf(i8* getelementptr inbounds ([3 x i8], [3 x i8]* @.str, i64 0, i64 0), i32* %4)
  store i32 2, i32* %5, align 4
  br label %13

13:                                               ; preds = %33, %11
  %14 = load i32, i32* %5, align 4
  %15 = sitofp i32 %14 to double
  %16 = load i32, i32* %4, align 4
  %17 = sitofp i32 %16 to double
  %18 = call double @sqrt(double %17) #3
  %19 = fcmp ole double %15, %18
  br i1 %19, label %20, label %36

20:                                               ; preds = %13
  %21 = load i32, i32* %4, align 4
  %22 = load i32, i32* %5, align 4
  %23 = srem i32 %21, %22
  %24 = icmp eq i32 %23, 0
  br i1 %24, label %25, label %32

25:                                               ; preds = %20
  %26 = load i32, i32* @count, align 4
  %27 = add nsw i32 %26, 1
  store i32 %27, i32* @count, align 4
  %28 = load i32, i32* %5, align 4
  %29 = load i32, i32* %4, align 4
  %30 = load i32, i32* %5, align 4
  %31 = sdiv i32 %29, %30
  call void @fun(i32 %28, i32 %31)
  br label %32

32:                                               ; preds = %25, %20
  br label %33

33:                                               ; preds = %32
  %34 = load i32, i32* %5, align 4
  %35 = add nsw i32 %34, 1
  store i32 %35, i32* %5, align 4
  br label %13

36:                                               ; preds = %13
  %37 = load i32, i32* @count, align 4
  %38 = add nsw i32 %37, 1
  %39 = call i32 (i8*, ...) @printf(i8* getelementptr inbounds ([4 x i8], [4 x i8]* @.str.1, i64 0, i64 0), i32 %38)
  br label %40

40:                                               ; preds = %36
  %41 = load i32, i32* %3, align 4
  %42 = add nsw i32 %41, 1
  store i32 %42, i32* %3, align 4
  br label %7

43:                                               ; preds = %7
  %44 = load i32, i32* %1, align 4
  ret i32 %44
}

declare dso_local i32 @__isoc99_scanf(i8*, ...) #2

declare dso_local i32 @printf(i8*, ...) #2


!llvm.module.flags = !{!0}
!llvm.ident = !{!1}

!0 = !{i32 1, !"wchar_size", i32 4}
!1 = !{!"clang version 10.0.0-4ubuntu1 "}
